target datalayout = "e-m:e-p270:32:32-p271:32:32-p272:64:64-i64:64-i128:128-f80:128-n8:16:32:64-S128"
target triple = "x86_64-pc-linux-gnu"

%struct.sqlite3_vtab = type { ptr, i32, ptr }
%struct.ZipfileTab = type { %struct.sqlite3_vtab, ptr, ptr, ptr, ptr, i64, ptr, ptr, ptr, i64, i64 }
%struct.ZipfileEOCD = type { i16, i16, i16, i16, i32, i32 }

@.str.235 = private unnamed_addr constant [17 x i8] c"error in fread()\00", align 1
@.str.236 = private unnamed_addr constant [44 x i8] c"cannot find end of central directory record\00", align 1

; Function Attrs: nounwind uwtable
define internal i32 @zipfileGetU32(ptr noundef %0) #0 {
  %2 = alloca i32, align 4
  %3 = alloca ptr, align 8
  store ptr %0, ptr %3, align 8, !tbaa !36
  %4 = load ptr, ptr %3, align 8, !tbaa !36
  %5 = icmp eq ptr %4, null
  br i1 %5, label %6, label %7

6:                                                ; preds = %1
  store i32 0, ptr %2, align 4
  br label %31

7:                                                ; preds = %1
  %8 = load ptr, ptr %3, align 8, !tbaa !36
  %9 = getelementptr inbounds i8, ptr %8, i64 3
  %10 = load i8, ptr %9, align 1, !tbaa !40
  %11 = zext i8 %10 to i32
  %12 = shl i32 %11, 24
  %13 = load ptr, ptr %3, align 8, !tbaa !36
  %14 = getelementptr inbounds i8, ptr %13, i64 2
  %15 = load i8, ptr %14, align 1, !tbaa !40
  %16 = zext i8 %15 to i32
  %17 = shl i32 %16, 16
  %18 = add i32 %12, %17
  %19 = load ptr, ptr %3, align 8, !tbaa !36
  %20 = getelementptr inbounds i8, ptr %19, i64 1
  %21 = load i8, ptr %20, align 1, !tbaa !40
  %22 = zext i8 %21 to i32
  %23 = shl i32 %22, 8
  %24 = add i32 %18, %23
  %25 = load ptr, ptr %3, align 8, !tbaa !36
  %26 = getelementptr inbounds i8, ptr %25, i64 0
  %27 = load i8, ptr %26, align 1, !tbaa !40
  %28 = zext i8 %27 to i32
  %29 = shl i32 %28, 0
  %30 = add i32 %24, %29
  store i32 %30, ptr %2, align 4
  br label %31

31:                                               ; preds = %7, %6
  %32 = load i32, ptr %2, align 4
  ret i32 %32
}

; Function Attrs: nounwind uwtable
define internal zeroext i16 @zipfileGetU16(ptr noundef %0) #0 {
  %2 = alloca ptr, align 8
  store ptr %0, ptr %2, align 8, !tbaa !36
  %3 = load ptr, ptr %2, align 8, !tbaa !36
  %4 = getelementptr inbounds i8, ptr %3, i64 1
  %5 = load i8, ptr %4, align 1, !tbaa !40
  %6 = zext i8 %5 to i32
  %7 = shl i32 %6, 8
  %8 = load ptr, ptr %2, align 8, !tbaa !36
  %9 = getelementptr inbounds i8, ptr %8, i64 0
  %10 = load i8, ptr %9, align 1, !tbaa !40
  %11 = zext i8 %10 to i32
  %12 = add nsw i32 %7, %11
  %13 = trunc i32 %12 to i16
  ret i16 %13
}

; Function Attrs: nounwind uwtable
define internal i32 @zipfileReadData(ptr noundef %0, ptr noundef %1, i32 noundef %2, i64 noundef %3, ptr noundef %4) #0 {
  %6 = alloca i32, align 4
  %7 = alloca ptr, align 8
  %8 = alloca ptr, align 8
  %9 = alloca i32, align 4
  %10 = alloca i64, align 8
  %11 = alloca ptr, align 8
  %12 = alloca i64, align 8
  %13 = alloca i32, align 4
  store ptr %0, ptr %7, align 8, !tbaa !12
  store ptr %1, ptr %8, align 8, !tbaa !36
  store i32 %2, ptr %9, align 4, !tbaa !3
  store i64 %3, ptr %10, align 8, !tbaa !44
  store ptr %4, ptr %11, align 8, !tbaa !21
  call void @llvm.lifetime.start.p0(i64 8, ptr %12) #14
  %14 = load ptr, ptr %7, align 8, !tbaa !12
  %15 = load i64, ptr %10, align 8, !tbaa !44
  %16 = call i32 @fseek(ptr noundef %14, i64 noundef %15, i32 noundef 0)
  %17 = load ptr, ptr %8, align 8, !tbaa !36
  %18 = load i32, ptr %9, align 4, !tbaa !3
  %19 = sext i32 %18 to i64
  %20 = load ptr, ptr %7, align 8, !tbaa !12
  %21 = call i64 @fread(ptr noundef %17, i64 noundef 1, i64 noundef %19, ptr noundef %20)
  store i64 %21, ptr %12, align 8, !tbaa !113
  %22 = load i64, ptr %12, align 8, !tbaa !113
  %23 = trunc i64 %22 to i32
  %24 = load i32, ptr %9, align 4, !tbaa !3
  %25 = icmp ne i32 %23, %24
  br i1 %25, label %26, label %29

26:                                               ; preds = %5
  %27 = call ptr (ptr, ...) @sqlite3_mprintf(ptr noundef @.str.235)
  %28 = load ptr, ptr %11, align 8, !tbaa !21
  store ptr %27, ptr %28, align 8, !tbaa !36
  store i32 1, ptr %6, align 4
  store i32 1, ptr %13, align 4
  br label %30

29:                                               ; preds = %5
  store i32 0, ptr %6, align 4
  store i32 1, ptr %13, align 4
  br label %30

30:                                               ; preds = %29, %26
  call void @llvm.lifetime.end.p0(i64 8, ptr %12) #14
  %31 = load i32, ptr %6, align 4
  ret i32 %31
}

; Function Attrs: nounwind uwtable
define internal i32 @zipfileReadEOCD(ptr noundef %0, ptr noundef %1, i32 noundef %2, ptr noundef %3, ptr noundef %4) #0 {
  %6 = alloca i32, align 4
  %7 = alloca ptr, align 8
  %8 = alloca ptr, align 8
  %9 = alloca i32, align 4
  %10 = alloca ptr, align 8
  %11 = alloca ptr, align 8
  %12 = alloca ptr, align 8
  %13 = alloca i32, align 4
  %14 = alloca i32, align 4
  %15 = alloca i64, align 8
  %16 = alloca i64, align 8
  %17 = alloca i32, align 4
  %18 = alloca i32, align 4
  store ptr %0, ptr %7, align 8, !tbaa !782
  store ptr %1, ptr %8, align 8, !tbaa !36
  store i32 %2, ptr %9, align 4, !tbaa !3
  store ptr %3, ptr %10, align 8, !tbaa !12
  store ptr %4, ptr %11, align 8, !tbaa !869
  call void @llvm.lifetime.start.p0(i64 8, ptr %12) #14
  %19 = load ptr, ptr %7, align 8, !tbaa !782
  %20 = getelementptr inbounds nuw %struct.ZipfileTab, ptr %19, i32 0, i32 3
  %21 = load ptr, ptr %20, align 8, !tbaa !788
  store ptr %21, ptr %12, align 8, !tbaa !36
  call void @llvm.lifetime.start.p0(i64 4, ptr %13) #14
  call void @llvm.lifetime.start.p0(i64 4, ptr %14) #14
  store i32 0, ptr %14, align 4, !tbaa !3
  %22 = load ptr, ptr %11, align 8, !tbaa !869
  call void @llvm.memset.p0.i64(ptr align 4 %22, i8 0, i64 16, i1 false)
  %23 = load ptr, ptr %8, align 8, !tbaa !36
  %24 = icmp eq ptr %23, null
  br i1 %24, label %25, label %57

25:                                               ; preds = %5
  call void @llvm.lifetime.start.p0(i64 8, ptr %15) #14
  call void @llvm.lifetime.start.p0(i64 8, ptr %16) #14
  %26 = load ptr, ptr %10, align 8, !tbaa !12
  %27 = call i32 @fseek(ptr noundef %26, i64 noundef 0, i32 noundef 2)
  %28 = load ptr, ptr %10, align 8, !tbaa !12
  %29 = call i64 @ftell(ptr noundef %28)
  store i64 %29, ptr %16, align 8, !tbaa !44
  %30 = load i64, ptr %16, align 8, !tbaa !44
  %31 = icmp eq i64 %30, 0
  br i1 %31, label %32, label %33

32:                                               ; preds = %25
  store i32 0, ptr %6, align 4
  store i32 1, ptr %17, align 4
  br label %54

33:                                               ; preds = %25
  %34 = load i64, ptr %16, align 8, !tbaa !44
  %35 = icmp slt i64 %34, 65536
  br i1 %35, label %36, label %38

36:                                               ; preds = %33
  %37 = load i64, ptr %16, align 8, !tbaa !44
  br label %39

38:                                               ; preds = %33
  br label %39

39:                                               ; preds = %38, %36
  %40 = phi i64 [ %37, %36 ], [ 65536, %38 ]
  %41 = trunc i64 %40 to i32
  store i32 %41, ptr %13, align 4, !tbaa !3
  %42 = load i64, ptr %16, align 8, !tbaa !44
  %43 = load i32, ptr %13, align 4, !tbaa !3
  %44 = sext i32 %43 to i64
  %45 = sub nsw i64 %42, %44
  store i64 %45, ptr %15, align 8, !tbaa !44
  %46 = load ptr, ptr %10, align 8, !tbaa !12
  %47 = load ptr, ptr %12, align 8, !tbaa !36
  %48 = load i32, ptr %13, align 4, !tbaa !3
  %49 = load i64, ptr %15, align 8, !tbaa !44
  %50 = load ptr, ptr %7, align 8, !tbaa !782
  %51 = getelementptr inbounds nuw %struct.ZipfileTab, ptr %50, i32 0, i32 0
  %52 = getelementptr inbounds nuw %struct.sqlite3_vtab, ptr %51, i32 0, i32 2
  %53 = call i32 @zipfileReadData(ptr noundef %46, ptr noundef %47, i32 noundef %48, i64 noundef %49, ptr noundef %52)
  store i32 %53, ptr %14, align 4, !tbaa !3
  store i32 0, ptr %17, align 4
  br label %54

54:                                               ; preds = %39, %32
  call void @llvm.lifetime.end.p0(i64 8, ptr %16) #14
  call void @llvm.lifetime.end.p0(i64 8, ptr %15) #14
  %55 = load i32, ptr %17, align 4
  switch i32 %55, label %181 [
    i32 0, label %56
  ]

56:                                               ; preds = %54
  br label %71

57:                                               ; preds = %5
  %58 = load i32, ptr %9, align 4, !tbaa !3
  %59 = icmp slt i32 %58, 65536
  br i1 %59, label %60, label %62

60:                                               ; preds = %57
  %61 = load i32, ptr %9, align 4, !tbaa !3
  br label %63

62:                                               ; preds = %57
  br label %63

63:                                               ; preds = %62, %60
  %64 = phi i32 [ %61, %60 ], [ 65536, %62 ]
  store i32 %64, ptr %13, align 4, !tbaa !3
  %65 = load ptr, ptr %8, align 8, !tbaa !36
  %66 = load i32, ptr %9, align 4, !tbaa !3
  %67 = load i32, ptr %13, align 4, !tbaa !3
  %68 = sub nsw i32 %66, %67
  %69 = sext i32 %68 to i64
  %70 = getelementptr inbounds i8, ptr %65, i64 %69
  store ptr %70, ptr %12, align 8, !tbaa !36
  br label %71

71:                                               ; preds = %63, %56
  %72 = load i32, ptr %14, align 4, !tbaa !3
  %73 = icmp eq i32 %72, 0
  br i1 %73, label %74, label %179

74:                                               ; preds = %71
  call void @llvm.lifetime.start.p0(i64 4, ptr %18) #14
  %75 = load i32, ptr %13, align 4, !tbaa !3
  %76 = sub nsw i32 %75, 20
  store i32 %76, ptr %18, align 4, !tbaa !3
  br label %77

77:                                               ; preds = %117, %74
  %78 = load i32, ptr %18, align 4, !tbaa !3
  %79 = icmp sge i32 %78, 0
  br i1 %79, label %80, label %120

80:                                               ; preds = %77
  %81 = load ptr, ptr %12, align 8, !tbaa !36
  %82 = load i32, ptr %18, align 4, !tbaa !3
  %83 = sext i32 %82 to i64
  %84 = getelementptr inbounds i8, ptr %81, i64 %83
  %85 = load i8, ptr %84, align 1, !tbaa !40
  %86 = zext i8 %85 to i32
  %87 = icmp eq i32 %86, 80
  br i1 %87, label %88, label %116

88:                                               ; preds = %80
  %89 = load ptr, ptr %12, align 8, !tbaa !36
  %90 = load i32, ptr %18, align 4, !tbaa !3
  %91 = add nsw i32 %90, 1
  %92 = sext i32 %91 to i64
  %93 = getelementptr inbounds i8, ptr %89, i64 %92
  %94 = load i8, ptr %93, align 1, !tbaa !40
  %95 = zext i8 %94 to i32
  %96 = icmp eq i32 %95, 75
  br i1 %96, label %97, label %116

97:                                               ; preds = %88
  %98 = load ptr, ptr %12, align 8, !tbaa !36
  %99 = load i32, ptr %18, align 4, !tbaa !3
  %100 = add nsw i32 %99, 2
  %101 = sext i32 %100 to i64
  %102 = getelementptr inbounds i8, ptr %98, i64 %101
  %103 = load i8, ptr %102, align 1, !tbaa !40
  %104 = zext i8 %103 to i32
  %105 = icmp eq i32 %104, 5
  br i1 %105, label %106, label %116

106:                                              ; preds = %97
  %107 = load ptr, ptr %12, align 8, !tbaa !36
  %108 = load i32, ptr %18, align 4, !tbaa !3
  %109 = add nsw i32 %108, 3
  %110 = sext i32 %109 to i64
  %111 = getelementptr inbounds i8, ptr %107, i64 %110
  %112 = load i8, ptr %111, align 1, !tbaa !40
  %113 = zext i8 %112 to i32
  %114 = icmp eq i32 %113, 6
  br i1 %114, label %115, label %116

115:                                              ; preds = %106
  br label %120

116:                                              ; preds = %106, %97, %88, %80
  br label %117

117:                                              ; preds = %116
  %118 = load i32, ptr %18, align 4, !tbaa !3
  %119 = add nsw i32 %118, -1
  store i32 %119, ptr %18, align 4, !tbaa !3
  br label %77, !llvm.loop !871

120:                                              ; preds = %115, %77
  %121 = load i32, ptr %18, align 4, !tbaa !3
  %122 = icmp slt i32 %121, 0
  br i1 %122, label %123, label %128

123:                                              ; preds = %120
  %124 = call ptr (ptr, ...) @sqlite3_mprintf(ptr noundef @.str.236)
  %125 = load ptr, ptr %7, align 8, !tbaa !782
  %126 = getelementptr inbounds nuw %struct.ZipfileTab, ptr %125, i32 0, i32 0
  %127 = getelementptr inbounds nuw %struct.sqlite3_vtab, ptr %126, i32 0, i32 2
  store ptr %124, ptr %127, align 8, !tbaa !846
  store i32 1, ptr %6, align 4
  store i32 1, ptr %17, align 4
  br label %176

128:                                              ; preds = %120
  %129 = load i32, ptr %18, align 4, !tbaa !3
  %130 = add nsw i32 %129, 4
  %131 = load ptr, ptr %12, align 8, !tbaa !36
  %132 = sext i32 %130 to i64
  %133 = getelementptr inbounds i8, ptr %131, i64 %132
  store ptr %133, ptr %12, align 8, !tbaa !36
  %134 = load ptr, ptr %12, align 8, !tbaa !36
  %135 = getelementptr inbounds i8, ptr %134, i64 2
  store ptr %135, ptr %12, align 8, !tbaa !36
  %136 = load ptr, ptr %12, align 8, !tbaa !36
  %137 = getelementptr inbounds i8, ptr %136, i64 -2
  %138 = call zeroext i16 @zipfileGetU16(ptr noundef %137)
  %139 = load ptr, ptr %11, align 8, !tbaa !869
  %140 = getelementptr inbounds nuw %struct.ZipfileEOCD, ptr %139, i32 0, i32 0
  store i16 %138, ptr %140, align 4, !tbaa !849
  %141 = load ptr, ptr %12, align 8, !tbaa !36
  %142 = getelementptr inbounds i8, ptr %141, i64 2
  store ptr %142, ptr %12, align 8, !tbaa !36
  %143 = load ptr, ptr %12, align 8, !tbaa !36
  %144 = getelementptr inbounds i8, ptr %143, i64 -2
  %145 = call zeroext i16 @zipfileGetU16(ptr noundef %144)
  %146 = load ptr, ptr %11, align 8, !tbaa !869
  %147 = getelementptr inbounds nuw %struct.ZipfileEOCD, ptr %146, i32 0, i32 1
  store i16 %145, ptr %147, align 2, !tbaa !850
  %148 = load ptr, ptr %12, align 8, !tbaa !36
  %149 = getelementptr inbounds i8, ptr %148, i64 2
  store ptr %149, ptr %12, align 8, !tbaa !36
  %150 = load ptr, ptr %12, align 8, !tbaa !36
  %151 = getelementptr inbounds i8, ptr %150, i64 -2
  %152 = call zeroext i16 @zipfileGetU16(ptr noundef %151)
  %153 = load ptr, ptr %11, align 8, !tbaa !869
  %154 = getelementptr inbounds nuw %struct.ZipfileEOCD, ptr %153, i32 0, i32 2
  store i16 %152, ptr %154, align 4, !tbaa !851
  %155 = load ptr, ptr %12, align 8, !tbaa !36
  %156 = getelementptr inbounds i8, ptr %155, i64 2
  store ptr %156, ptr %12, align 8, !tbaa !36
  %157 = load ptr, ptr %12, align 8, !tbaa !36
  %158 = getelementptr inbounds i8, ptr %157, i64 -2
  %159 = call zeroext i16 @zipfileGetU16(ptr noundef %158)
  %160 = load ptr, ptr %11, align 8, !tbaa !869
  %161 = getelementptr inbounds nuw %struct.ZipfileEOCD, ptr %160, i32 0, i32 3
  store i16 %159, ptr %161, align 2, !tbaa !852
  %162 = load ptr, ptr %12, align 8, !tbaa !36
  %163 = getelementptr inbounds i8, ptr %162, i64 4
  store ptr %163, ptr %12, align 8, !tbaa !36
  %164 = load ptr, ptr %12, align 8, !tbaa !36
  %165 = getelementptr inbounds i8, ptr %164, i64 -4
  %166 = call i32 @zipfileGetU32(ptr noundef %165)
  %167 = load ptr, ptr %11, align 8, !tbaa !869
  %168 = getelementptr inbounds nuw %struct.ZipfileEOCD, ptr %167, i32 0, i32 4
  store i32 %166, ptr %168, align 4, !tbaa !853
  %169 = load ptr, ptr %12, align 8, !tbaa !36
  %170 = getelementptr inbounds i8, ptr %169, i64 4
  store ptr %170, ptr %12, align 8, !tbaa !36
  %171 = load ptr, ptr %12, align 8, !tbaa !36
  %172 = getelementptr inbounds i8, ptr %171, i64 -4
  %173 = call i32 @zipfileGetU32(ptr noundef %172)
  %174 = load ptr, ptr %11, align 8, !tbaa !869
  %175 = getelementptr inbounds nuw %struct.ZipfileEOCD, ptr %174, i32 0, i32 5
  store i32 %173, ptr %175, align 4, !tbaa !854
  store i32 0, ptr %17, align 4
  br label %176

176:                                              ; preds = %128, %123
  call void @llvm.lifetime.end.p0(i64 4, ptr %18) #14
  %177 = load i32, ptr %17, align 4
  switch i32 %177, label %181 [
    i32 0, label %178
  ]

178:                                              ; preds = %176
  br label %179

179:                                              ; preds = %178, %71
  %180 = load i32, ptr %14, align 4, !tbaa !3
  store i32 %180, ptr %6, align 4
  store i32 1, ptr %17, align 4
  br label %181

181:                                              ; preds = %179, %176, %54
  call void @llvm.lifetime.end.p0(i64 4, ptr %14) #14
  call void @llvm.lifetime.end.p0(i64 4, ptr %13) #14
  call void @llvm.lifetime.end.p0(i64 8, ptr %12) #14
  %182 = load i32, ptr %6, align 4
  ret i32 %182
}