; Function Attrs: nounwind uwtable
define internal fastcc range(i32 0, 2) i32 @zipfileReadEOCD(ptr noundef captures(none) %0, ptr noundef readonly captures(address_is_null) %1, i32 noundef %2, ptr noundef captures(none) %3, ptr noundef writeonly captures(none) initializes((0, 16)) %4) unnamed_addr #2 {
  %6 = getelementptr inbounds nuw i8, ptr %0, i64 40
  %7 = load ptr, ptr %6, align 8, !tbaa !828
  tail call void @llvm.memset.p0.i64(ptr noundef nonnull align 4 dereferenceable(16) %4, i8 0, i64 16, i1 false)
  %8 = icmp eq ptr %1, null
  br i1 %8, label %9, label %.thread

9:                                                ; preds = %5
  %10 = tail call i32 @fseek(ptr noundef %3, i64 noundef 0, i32 noundef 2)
  %11 = tail call i64 @ftell(ptr noundef %3)
  %.not = icmp eq i64 %11, 0
  br i1 %.not, label %zipfileReadData.exit, label %12

12:                                               ; preds = %9
  %13 = tail call i64 @llvm.smin.i64(i64 %11, i64 65536)
  %14 = trunc i64 %13 to i32
  %sext = shl i64 %13, 32
  %15 = ashr exact i64 %sext, 32
  %16 = sub nsw i64 %11, %15
  %17 = tail call i32 @fseek(ptr noundef %3, i64 noundef %16, i32 noundef 0)
  %18 = tail call i64 @fread(ptr noundef %7, i64 noundef 1, i64 noundef %15, ptr noundef %3)
  %19 = trunc i64 %18 to i32
  %.not.i = icmp eq i32 %14, %19
  br i1 %.not.i, label %.thread86, label %24

.thread:                                          ; preds = %5
  %20 = tail call i32 @llvm.smin.i32(i32 %2, i32 65536)
  %21 = sub nsw i32 %2, %20
  %22 = sext i32 %21 to i64
  %23 = getelementptr inbounds i8, ptr %1, i64 %22
  br label %.thread86

24:                                               ; preds = %12
  %25 = getelementptr inbounds nuw i8, ptr %0, i64 16
  %26 = tail call ptr (ptr, ...) @sqlite3_mprintf(ptr noundef nonnull @.str.235) #43
  store ptr %26, ptr %25, align 8, !tbaa !29
  br label %zipfileReadData.exit

.thread86:                                        ; preds = %12, %.thread
  %.06185 = phi ptr [ %23, %.thread ], [ %7, %12 ]
  %.16582 = phi i32 [ %20, %.thread ], [ %14, %12 ]
  %27 = icmp sgt i32 %.16582, 19
  br i1 %27, label %.lr.ph.preheader, label %._crit_edge

.lr.ph.preheader:                                 ; preds = %.thread86
  %28 = add nsw i32 %.16582, -20
  %29 = zext nneg i32 %28 to i64
  br label %.lr.ph

.lr.ph:                                           ; preds = %.lr.ph.preheader, %45
  %indvars.iv = phi i64 [ %29, %.lr.ph.preheader ], [ %indvars.iv.next, %45 ]
  %30 = getelementptr inbounds nuw i8, ptr %.06185, i64 %indvars.iv
  %31 = load i8, ptr %30, align 1, !tbaa !25
  %32 = icmp eq i8 %31, 80
  br i1 %32, label %33, label %45

33:                                               ; preds = %.lr.ph
  %34 = getelementptr inbounds nuw i8, ptr %30, i64 1
  %35 = load i8, ptr %34, align 1, !tbaa !25
  %36 = icmp eq i8 %35, 75
  br i1 %36, label %37, label %45

37:                                               ; preds = %33
  %38 = getelementptr inbounds nuw i8, ptr %30, i64 2
  %39 = load i8, ptr %38, align 1, !tbaa !25
  %40 = icmp eq i8 %39, 5
  br i1 %40, label %41, label %45

41:                                               ; preds = %37
  %42 = getelementptr inbounds nuw i8, ptr %30, i64 3
  %43 = load i8, ptr %42, align 1, !tbaa !25
  %44 = icmp eq i8 %43, 6
  br i1 %44, label %.thread89, label %45

45:                                               ; preds = %.lr.ph, %33, %37, %41
  %indvars.iv.next = add nsw i64 %indvars.iv, -1
  %46 = icmp sgt i64 %indvars.iv, 0
  br i1 %46, label %.lr.ph, label %._crit_edge, !llvm.loop !853

.thread89:                                        ; preds = %41
  %47 = and i64 %indvars.iv, 4294967295
  %48 = getelementptr inbounds nuw i8, ptr %.06185, i64 %47
  %49 = getelementptr inbounds nuw i8, ptr %48, i64 4
  %.val = load i16, ptr %49, align 1
  store i16 %.val, ptr %4, align 4, !tbaa !909
  %50 = getelementptr inbounds nuw i8, ptr %48, i64 6
  %.val69 = load i16, ptr %50, align 1
  %51 = getelementptr inbounds nuw i8, ptr %4, i64 2
  store i16 %.val69, ptr %51, align 2, !tbaa !910
  %52 = getelementptr inbounds nuw i8, ptr %48, i64 8
  %.val71 = load i16, ptr %52, align 1
  %53 = getelementptr inbounds nuw i8, ptr %4, i64 4
  store i16 %.val71, ptr %53, align 4, !tbaa !911
  %54 = getelementptr inbounds nuw i8, ptr %48, i64 10
  %.val73 = load i16, ptr %54, align 1
  %55 = getelementptr inbounds nuw i8, ptr %4, i64 6
  store i16 %.val73, ptr %55, align 2, !tbaa !912
  %56 = getelementptr inbounds nuw i8, ptr %48, i64 12
  %57 = load i32, ptr %56, align 1
  %58 = getelementptr inbounds nuw i8, ptr %4, i64 8
  store i32 %57, ptr %58, align 4, !tbaa !913
  %59 = getelementptr inbounds nuw i8, ptr %48, i64 16
  %60 = load i32, ptr %59, align 1
  %61 = getelementptr inbounds nuw i8, ptr %4, i64 12
  store i32 %60, ptr %61, align 4, !tbaa !896
  br label %zipfileReadData.exit

._crit_edge:                                      ; preds = %45, %.thread86
  %62 = tail call ptr (ptr, ...) @sqlite3_mprintf(ptr noundef nonnull @.str.236) #43
  %63 = getelementptr inbounds nuw i8, ptr %0, i64 16
  store ptr %62, ptr %63, align 8, !tbaa !854
  br label %zipfileReadData.exit

zipfileReadData.exit:                             ; preds = %24, %.thread89, %._crit_edge, %9
  %.160 = phi i32 [ 1, %._crit_edge ], [ 0, %9 ], [ 1, %24 ], [ 0, %.thread89 ]
  ret i32 %.160
}